target datalayout = "e-m:e-p270:32:32-p271:32:32-p272:64:64-i64:64-i128:128-f80:128-n8:16:32:64-S128"
target triple = "x86_64-unknown-linux-gnu"

%"class.v8::StartupData" = type { ptr, i32 }
%"class.node::BlobSerializerDeserializer" = type { i8 }

@.str.39 = private unnamed_addr constant [35 x i8] c"\0AWrite<v8::StartupData>() size=%d\0A\00", align 1
@.str.43 = private unnamed_addr constant [42 x i8] c"Write<v8::StartupData>() wrote %d bytes\0A\0A\00", align 1
@stderr = external global ptr, align 8

; Function Attrs: mustprogress nounwind uwtable
define linkonce_odr dso_local void @_ZNK4node26BlobSerializerDeserializer5DebugIJRmEEEvPKcDpOT_(ptr noundef nonnull align 1 dereferenceable(1) %this, ptr noundef %format, ptr noundef nonnull align 8 dereferenceable(8) %args) #4 comdat align 2 {
entry:
  %this.addr = alloca ptr, align 8
  %format.addr = alloca ptr, align 8
  %args.addr = alloca ptr, align 8
  store ptr %this, ptr %this.addr, align 8
  store ptr %format, ptr %format.addr, align 8
  store ptr %args, ptr %args.addr, align 8
  %this1 = load ptr, ptr %this.addr, align 8
  %is_debug = getelementptr inbounds %"class.node::BlobSerializerDeserializer", ptr %this1, i32 0, i32 0
  %0 = load i8, ptr %is_debug, align 1
  %tobool = trunc i8 %0 to i1
  br i1 %tobool, label %if.then, label %if.end

if.then:                                          ; preds = %entry
  %1 = load ptr, ptr @stderr, align 8
  %2 = load ptr, ptr %format.addr, align 8
  %3 = load ptr, ptr %args.addr, align 8
  call void @_ZN4node7FPrintFIJRmEEEvP8_IO_FILEPKcDpOT_(ptr noundef %1, ptr noundef %2, ptr noundef nonnull align 8 dereferenceable(8) %3) #18
  br label %if.end

if.end:                                           ; preds = %if.then, %entry
  ret void
}

; Function Attrs: mustprogress nounwind uwtable
define linkonce_odr dso_local noundef i64 @_ZN4node14BlobSerializerINS_18SnapshotSerializerEE15WriteArithmeticIiEEmRKT_(ptr noundef nonnull align 8 dereferenceable(32) %this, ptr noundef nonnull align 4 dereferenceable(4) %data) #4 comdat align 2 {
entry:
  %this.addr = alloca ptr, align 8
  %data.addr = alloca ptr, align 8
  store ptr %this, ptr %this.addr, align 8
  store ptr %data, ptr %data.addr, align 8
  %this1 = load ptr, ptr %this.addr, align 8
  %0 = load ptr, ptr %data.addr, align 8
  %call = call noundef i64 @_ZN4node14BlobSerializerINS_18SnapshotSerializerEE15WriteArithmeticIiEEmPKT_m(ptr noundef nonnull align 8 dereferenceable(32) %this1, ptr noundef %0, i64 noundef 1)
  ret i64 %call
}

; Function Attrs: mustprogress nounwind uwtable
define linkonce_odr dso_local void @_ZNK4node26BlobSerializerDeserializer5DebugIJRKiEEEvPKcDpOT_(ptr noundef nonnull align 1 dereferenceable(1) %this, ptr noundef %format, ptr noundef nonnull align 4 dereferenceable(4) %args) #4 comdat align 2 {
entry:
  %this.addr = alloca ptr, align 8
  %format.addr = alloca ptr, align 8
  %args.addr = alloca ptr, align 8
  store ptr %this, ptr %this.addr, align 8
  store ptr %format, ptr %format.addr, align 8
  store ptr %args, ptr %args.addr, align 8
  %this1 = load ptr, ptr %this.addr, align 8
  %is_debug = getelementptr inbounds %"class.node::BlobSerializerDeserializer", ptr %this1, i32 0, i32 0
  %0 = load i8, ptr %is_debug, align 1
  %tobool = trunc i8 %0 to i1
  br i1 %tobool, label %if.then, label %if.end

if.then:                                          ; preds = %entry
  %1 = load ptr, ptr @stderr, align 8
  %2 = load ptr, ptr %format.addr, align 8
  %3 = load ptr, ptr %args.addr, align 8
  call void @_ZN4node7FPrintFIJRKiEEEvP8_IO_FILEPKcDpOT_(ptr noundef %1, ptr noundef %2, ptr noundef nonnull align 4 dereferenceable(4) %3) #18
  br label %if.end

if.end:                                           ; preds = %if.then, %entry
  ret void
}

; Function Attrs: mustprogress nounwind uwtable
define dso_local noundef i64 @_ZN4node18SnapshotSerializer5WriteIN2v811StartupDataETnPNSt9enable_ifIXntsr3std7is_sameIT_NSt7__cxx1112basic_stringIcSt11char_traitsIcESaIcEEEEE5valueEvE4typeELPv0ETnPNS4_IXntsr3std13is_arithmeticIS5_EE5valueEvE4typeELSF_0EEEmRKS5_(ptr noundef nonnull align 8 dereferenceable(32) %this, ptr noundef nonnull align 8 dereferenceable(16) %data) #4 align 2 {
entry:
  %this.addr = alloca ptr, align 8
  %data.addr = alloca ptr, align 8
  %written_total = alloca i64, align 8
  store ptr %this, ptr %this.addr, align 8
  store ptr %data, ptr %data.addr, align 8
  %this1 = load ptr, ptr %this.addr, align 8
  %0 = load ptr, ptr %data.addr, align 8
  %raw_size = getelementptr inbounds %"class.v8::StartupData", ptr %0, i32 0, i32 1
  call void @_ZNK4node26BlobSerializerDeserializer5DebugIJRKiEEEvPKcDpOT_(ptr noundef nonnull align 1 dereferenceable(1) %this1, ptr noundef @.str.39, ptr noundef nonnull align 4 dereferenceable(4) %raw_size)
  br label %do.body

do.body:                                          ; preds = %entry
  %1 = load ptr, ptr %data.addr, align 8
  %raw_size2 = getelementptr inbounds %"class.v8::StartupData", ptr %1, i32 0, i32 1
  %2 = load i32, ptr %raw_size2, align 8
  %cmp = icmp sgt i32 %2, 0
  %lnot = xor i1 %cmp, true
  %lnot3 = xor i1 %lnot, true
  %lnot4 = xor i1 %lnot3, true
  br i1 %lnot4, label %if.then, label %if.end

if.then:                                          ; preds = %do.body
  br label %do.body5

do.body5:                                         ; preds = %if.then
  call void @_ZN4node6AssertERKNS_13AssertionInfoE(ptr noundef nonnull align 8 dereferenceable(24) @_ZZN4node18SnapshotSerializer5WriteIN2v811StartupDataETnPNSt9enable_ifIXntsr3std7is_sameIT_NSt7__cxx1112basic_stringIcSt11char_traitsIcESaIcEEEEE5valueEvE4typeELPv0ETnPNS4_IXntsr3std13is_arithmeticIS5_EE5valueEvE4typeELSF_0EEEmRKS5_E4args)
  call void @abort() #16
  unreachable

do.end:                                           ; No predecessors!
  br label %if.end

if.end:                                           ; preds = %do.end, %do.body
  br label %do.end6

do.end6:                                          ; preds = %if.end
  %3 = load ptr, ptr %data.addr, align 8
  %raw_size7 = getelementptr inbounds %"class.v8::StartupData", ptr %3, i32 0, i32 1
  %call = call noundef i64 @_ZN4node14BlobSerializerINS_18SnapshotSerializerEE15WriteArithmeticIiEEmRKT_(ptr noundef nonnull align 8 dereferenceable(32) %this1, ptr noundef nonnull align 4 dereferenceable(4) %raw_size7)
  store i64 %call, ptr %written_total, align 8
  %4 = load ptr, ptr %data.addr, align 8
  %data8 = getelementptr inbounds %"class.v8::StartupData", ptr %4, i32 0, i32 0
  %5 = load ptr, ptr %data8, align 8
  %6 = load ptr, ptr %data.addr, align 8
  %raw_size9 = getelementptr inbounds %"class.v8::StartupData", ptr %6, i32 0, i32 1
  %7 = load i32, ptr %raw_size9, align 8
  %conv = sext i32 %7 to i64
  %call10 = call noundef i64 @_ZN4node14BlobSerializerINS_18SnapshotSerializerEE15WriteArithmeticIcEEmPKT_m(ptr noundef nonnull align 8 dereferenceable(32) %this1, ptr noundef %5, i64 noundef %conv)
  %8 = load i64, ptr %written_total, align 8
  %add = add i64 %8, %call10
  store i64 %add, ptr %written_total, align 8
  call void @_ZNK4node26BlobSerializerDeserializer5DebugIJRmEEEvPKcDpOT_(ptr noundef nonnull align 1 dereferenceable(1) %this1, ptr noundef @.str.43, ptr noundef nonnull align 8 dereferenceable(8) %written_total)
  %9 = load i64, ptr %written_total, align 8
  ret i64 %9
}