; Function Attrs: mustprogress nounwind uwtable
define dso_local noundef i64 @_ZN4node18SnapshotSerializer5WriteIN2v811StartupDataETnPNSt9enable_ifIXntsr3std7is_sameIT_NSt7__cxx1112basic_stringIcSt11char_traitsIcESaIcEEEEE5valueEvE4typeELPv0ETnPNS4_IXntsr3std13is_arithmeticIS5_EE5valueEvE4typeELSF_0EEEmRKS5_(ptr noundef nonnull align 8 dereferenceable(32) %this, ptr noundef nonnull align 8 dereferenceable(16) %data) local_unnamed_addr #3 align 2 {
entry:
  %written_total = alloca i64, align 8
  %raw_size = getelementptr inbounds i8, ptr %data, i64 8
  %0 = load i8, ptr %this, align 8
  %1 = and i8 %0, 1
  %tobool.not.i = icmp eq i8 %1, 0
  br i1 %tobool.not.i, label %_ZNK4node26BlobSerializerDeserializer5DebugIJRKiEEEvPKcDpOT_.exit, label %if.then.i

if.then.i:                                        ; preds = %entry
  %2 = load ptr, ptr @stderr, align 8
  tail call void @_ZN4node7FPrintFIJRKiEEEvP8_IO_FILEPKcDpOT_(ptr noundef %2, ptr noundef nonnull @.str.39, ptr noundef nonnull align 4 dereferenceable(4) %raw_size) #24
  br label %_ZNK4node26BlobSerializerDeserializer5DebugIJRKiEEEvPKcDpOT_.exit

_ZNK4node26BlobSerializerDeserializer5DebugIJRKiEEEvPKcDpOT_.exit: ; preds = %entry, %if.then.i
  %3 = load i32, ptr %raw_size, align 8
  %cmp = icmp slt i32 %3, 1
  br i1 %cmp, label %do.body5, label %do.end6

do.body5:                                         ; preds = %_ZNK4node26BlobSerializerDeserializer5DebugIJRKiEEEvPKcDpOT_.exit
  tail call void @_ZN4node6AssertERKNS_13AssertionInfoE(ptr noundef nonnull align 8 dereferenceable(24) @_ZZN4node18SnapshotSerializer5WriteIN2v811StartupDataETnPNSt9enable_ifIXntsr3std7is_sameIT_NSt7__cxx1112basic_stringIcSt11char_traitsIcESaIcEEEEE5valueEvE4typeELPv0ETnPNS4_IXntsr3std13is_arithmeticIS5_EE5valueEvE4typeELSF_0EEEmRKS5_E4args) #23
  tail call void @abort() #25
  unreachable

do.end6:                                          ; preds = %_ZNK4node26BlobSerializerDeserializer5DebugIJRKiEEEvPKcDpOT_.exit
  %call.i = tail call noundef i64 @_ZN4node14BlobSerializerINS_18SnapshotSerializerEE15WriteArithmeticIiEEmPKT_m(ptr noundef nonnull align 8 dereferenceable(32) %this, ptr noundef nonnull %raw_size, i64 noundef 1)
  %4 = load ptr, ptr %data, align 8
  %5 = load i32, ptr %raw_size, align 8
  %conv = sext i32 %5 to i64
  %call10 = tail call noundef i64 @_ZN4node14BlobSerializerINS_18SnapshotSerializerEE15WriteArithmeticIcEEmPKT_m(ptr noundef nonnull align 8 dereferenceable(32) %this, ptr noundef %4, i64 noundef %conv)
  %add = add i64 %call.i, %call10
  store i64 %add, ptr %written_total, align 8
  %6 = load i8, ptr %this, align 8
  %7 = and i8 %6, 1
  %tobool.not.i5 = icmp eq i8 %7, 0
  br i1 %tobool.not.i5, label %_ZNK4node26BlobSerializerDeserializer5DebugIJRmEEEvPKcDpOT_.exit, label %if.then.i6

if.then.i6:                                       ; preds = %do.end6
  %8 = load ptr, ptr @stderr, align 8
  call void @_ZN4node7FPrintFIJRmEEEvP8_IO_FILEPKcDpOT_(ptr noundef %8, ptr noundef nonnull @.str.43, ptr noundef nonnull align 8 dereferenceable(8) %written_total) #24
  %.pre = load i64, ptr %written_total, align 8
  br label %_ZNK4node26BlobSerializerDeserializer5DebugIJRmEEEvPKcDpOT_.exit

_ZNK4node26BlobSerializerDeserializer5DebugIJRmEEEvPKcDpOT_.exit: ; preds = %do.end6, %if.then.i6
  %9 = phi i64 [ %add, %do.end6 ], [ %.pre, %if.then.i6 ]
  ret i64 %9
}